target datalayout = "e-m:e-p270:32:32-p271:32:32-p272:64:64-i64:64-i128:128-f80:128-n8:16:32:64-S128"
target triple = "x86_64-pc-linux-gnu"

%struct.crypto_generichash_blake2b_state = type { [384 x i8] }

; Function Attrs: nounwind ssp uwtable
define dso_local i32 @crypto_box_curve25519xchacha20poly1305_seal(ptr noundef nonnull %0, ptr noundef %1, i64 noundef %2, ptr noundef nonnull %3) #0 {
  %5 = alloca i32, align 4
  %6 = alloca ptr, align 8
  %7 = alloca ptr, align 8
  %8 = alloca i64, align 8
  %9 = alloca ptr, align 8
  %10 = alloca [24 x i8], align 16
  %11 = alloca [32 x i8], align 16
  %12 = alloca [32 x i8], align 16
  %13 = alloca i32, align 4
  %14 = alloca i32, align 4
  store ptr %0, ptr %6, align 8
  store ptr %1, ptr %7, align 8
  store i64 %2, ptr %8, align 8
  store ptr %3, ptr %9, align 8
  call void @llvm.lifetime.start.p0(i64 24, ptr %10) #6
  call void @llvm.lifetime.start.p0(i64 32, ptr %11) #6
  call void @llvm.lifetime.start.p0(i64 32, ptr %12) #6
  call void @llvm.lifetime.start.p0(i64 4, ptr %13) #6
  %15 = getelementptr inbounds [32 x i8], ptr %11, i64 0, i64 0
  %16 = getelementptr inbounds [32 x i8], ptr %12, i64 0, i64 0
  %17 = call i32 @crypto_box_curve25519xchacha20poly1305_keypair(ptr noundef %15, ptr noundef %16)
  %18 = icmp ne i32 %17, 0
  br i1 %18, label %19, label %20

19:                                               ; preds = %4
  store i32 -1, ptr %5, align 4
  store i32 1, ptr %14, align 4
  br label %40

20:                                               ; preds = %4
  %21 = getelementptr inbounds [24 x i8], ptr %10, i64 0, i64 0
  %22 = getelementptr inbounds [32 x i8], ptr %11, i64 0, i64 0
  %23 = load ptr, ptr %9, align 8
  %24 = call i32 @_crypto_box_curve25519xchacha20poly1305_seal_nonce(ptr noundef %21, ptr noundef %22, ptr noundef %23)
  %25 = load ptr, ptr %6, align 8
  %26 = getelementptr i8, ptr %25, i64 32
  %27 = load ptr, ptr %7, align 8
  %28 = load i64, ptr %8, align 8
  %29 = getelementptr inbounds [24 x i8], ptr %10, i64 0, i64 0
  %30 = load ptr, ptr %9, align 8
  %31 = getelementptr inbounds [32 x i8], ptr %12, i64 0, i64 0
  %32 = call i32 @crypto_box_curve25519xchacha20poly1305_easy(ptr noundef %26, ptr noundef %27, i64 noundef %28, ptr noundef %29, ptr noundef %30, ptr noundef %31)
  store i32 %32, ptr %13, align 4
  %33 = load ptr, ptr %6, align 8
  %34 = getelementptr inbounds [32 x i8], ptr %11, i64 0, i64 0
  %35 = call ptr @memcpy.inline(ptr noundef %33, ptr noundef %34, i64 noundef 32) #6
  %36 = getelementptr inbounds [32 x i8], ptr %12, i64 0, i64 0
  call void @sodium_memzero(ptr noundef %36, i64 noundef 32)
  %37 = getelementptr inbounds [32 x i8], ptr %11, i64 0, i64 0
  call void @sodium_memzero(ptr noundef %37, i64 noundef 32)
  %38 = getelementptr inbounds [24 x i8], ptr %10, i64 0, i64 0
  call void @sodium_memzero(ptr noundef %38, i64 noundef 24)
  %39 = load i32, ptr %13, align 4
  store i32 %39, ptr %5, align 4
  store i32 1, ptr %14, align 4
  br label %40

40:                                               ; preds = %20, %19
  call void @llvm.lifetime.end.p0(i64 4, ptr %13) #6
  call void @llvm.lifetime.end.p0(i64 32, ptr %12) #6
  call void @llvm.lifetime.end.p0(i64 32, ptr %11) #6
  call void @llvm.lifetime.end.p0(i64 24, ptr %10) #6
  %41 = load i32, ptr %5, align 4
  ret i32 %41
}

; Function Attrs: nocallback nofree nosync nounwind willreturn memory(argmem: readwrite)
declare void @llvm.lifetime.start.p0(i64 immarg, ptr captures(none)) #1

declare i32 @crypto_box_curve25519xchacha20poly1305_keypair(ptr noundef, ptr noundef) #2

; Function Attrs: nounwind ssp uwtable
define internal i32 @_crypto_box_curve25519xchacha20poly1305_seal_nonce(ptr noundef %0, ptr noundef %1, ptr noundef %2) #0 {
  %4 = alloca ptr, align 8
  %5 = alloca ptr, align 8
  %6 = alloca ptr, align 8
  %7 = alloca %struct.crypto_generichash_blake2b_state, align 64
  store ptr %0, ptr %4, align 8
  store ptr %1, ptr %5, align 8
  store ptr %2, ptr %6, align 8
  call void @llvm.lifetime.start.p0(i64 384, ptr %7) #6
  %8 = call i32 @crypto_generichash_init(ptr noundef %7, ptr noundef null, i64 noundef 0, i64 noundef 24)
  %9 = load ptr, ptr %5, align 8
  %10 = call i32 @crypto_generichash_update(ptr noundef %7, ptr noundef %9, i64 noundef 32)
  %11 = load ptr, ptr %6, align 8
  %12 = call i32 @crypto_generichash_update(ptr noundef %7, ptr noundef %11, i64 noundef 32)
  %13 = load ptr, ptr %4, align 8
  %14 = call i32 @crypto_generichash_final(ptr noundef %7, ptr noundef %13, i64 noundef 24)
  call void @llvm.lifetime.end.p0(i64 384, ptr %7) #6
  ret i32 0
}

declare i32 @crypto_box_curve25519xchacha20poly1305_easy(ptr noundef, ptr noundef, i64 noundef, ptr noundef, ptr noundef, ptr noundef) #2

; Function Attrs: alwaysinline nounwind
define internal ptr @memcpy.inline(ptr noalias nonnull %0, ptr noalias nonnull %1, i64 %2) #3 {
  %4 = alloca ptr, align 8
  %5 = alloca ptr, align 8
  %6 = alloca i64, align 8
  store ptr %0, ptr %4, align 8
  store ptr %1, ptr %5, align 8
  store i64 %2, ptr %6, align 8
  %7 = load ptr, ptr %4, align 8
  %8 = load ptr, ptr %5, align 8
  %9 = load i64, ptr %6, align 8
  %10 = load ptr, ptr %4, align 8
  %11 = call i64 @llvm.objectsize.i64.p0(ptr %10, i1 false, i1 true, i1 true)
  %12 = call ptr @__memcpy_chk(ptr noundef %7, ptr noundef %8, i64 noundef %9, i64 noundef %11) #6
  ret ptr %12
}

declare void @sodium_memzero(ptr noundef, i64 noundef) #2

; Function Attrs: nocallback nofree nosync nounwind willreturn memory(argmem: readwrite)
declare void @llvm.lifetime.end.p0(i64 immarg, ptr captures(none)) #1

; Function Attrs: nounwind ssp uwtable
define dso_local i32 @crypto_box_curve25519xchacha20poly1305_seal_open(ptr noundef %0, ptr noundef nonnull %1, i64 noundef %2, ptr noundef nonnull %3, ptr noundef nonnull %4) #0 {
  %6 = alloca i32, align 4
  %7 = alloca ptr, align 8
  %8 = alloca ptr, align 8
  %9 = alloca i64, align 8
  %10 = alloca ptr, align 8
  %11 = alloca ptr, align 8
  %12 = alloca [24 x i8], align 16
  %13 = alloca i32, align 4
  store ptr %0, ptr %7, align 8
  store ptr %1, ptr %8, align 8
  store i64 %2, ptr %9, align 8
  store ptr %3, ptr %10, align 8
  store ptr %4, ptr %11, align 8
  call void @llvm.lifetime.start.p0(i64 24, ptr %12) #6
  %14 = load i64, ptr %9, align 8
  %15 = icmp ult i64 %14, 48
  br i1 %15, label %16, label %17

16:                                               ; preds = %5
  store i32 -1, ptr %6, align 4
  store i32 1, ptr %13, align 4
  br label %31

17:                                               ; preds = %5
  %18 = getelementptr inbounds [24 x i8], ptr %12, i64 0, i64 0
  %19 = load ptr, ptr %8, align 8
  %20 = load ptr, ptr %10, align 8
  %21 = call i32 @_crypto_box_curve25519xchacha20poly1305_seal_nonce(ptr noundef %18, ptr noundef %19, ptr noundef %20)
  %22 = load ptr, ptr %7, align 8
  %23 = load ptr, ptr %8, align 8
  %24 = getelementptr i8, ptr %23, i64 32
  %25 = load i64, ptr %9, align 8
  %26 = sub i64 %25, 32
  %27 = getelementptr inbounds [24 x i8], ptr %12, i64 0, i64 0
  %28 = load ptr, ptr %8, align 8
  %29 = load ptr, ptr %11, align 8
  %30 = call i32 @crypto_box_curve25519xchacha20poly1305_open_easy(ptr noundef %22, ptr noundef %24, i64 noundef %26, ptr noundef %27, ptr noundef %28, ptr noundef %29)
  store i32 %30, ptr %6, align 4
  store i32 1, ptr %13, align 4
  br label %31

31:                                               ; preds = %17, %16
  call void @llvm.lifetime.end.p0(i64 24, ptr %12) #6
  %32 = load i32, ptr %6, align 4
  ret i32 %32
}

declare i32 @crypto_box_curve25519xchacha20poly1305_open_easy(ptr noundef, ptr noundef, i64 noundef, ptr noundef, ptr noundef, ptr noundef) #2

; Function Attrs: nounwind ssp uwtable
define dso_local i64 @crypto_box_curve25519xchacha20poly1305_sealbytes() #0 {
  ret i64 48
}

declare i32 @crypto_generichash_init(ptr noundef, ptr noundef, i64 noundef, i64 noundef) #2

declare i32 @crypto_generichash_update(ptr noundef, ptr noundef, i64 noundef) #2

declare i32 @crypto_generichash_final(ptr noundef, ptr noundef, i64 noundef) #2

; Function Attrs: nounwind
declare ptr @__memcpy_chk(ptr noundef, ptr noundef, i64 noundef, i64 noundef) #4

; Function Attrs: nocallback nofree nosync nounwind speculatable willreturn memory(none)
declare i64 @llvm.objectsize.i64.p0(ptr, i1 immarg, i1 immarg, i1 immarg) #5


!llvm.module.flags = !{!0, !1, !2, !3}

!0 = !{i32 1, !"wchar_size", i32 4}
!1 = !{i32 8, !"PIC Level", i32 2}
!2 = !{i32 7, !"PIE Level", i32 2}
!3 = !{i32 7, !"uwtable", i32 2}
